; Function Attrs: mustprogress nofree norecurse nosync nounwind null_pointer_is_valid sspstrong willreturn memory(write, argmem: readwrite, inaccessiblemem: none) uwtable
define void @_ZN11CaptureFile18setCaptureStopFlagEb(ptr noundef readonly align 8 captures(none) dereferenceable_or_null(48) %0, i1 noundef zeroext %1) local_unnamed_addr #14 align 2 {
  %3 = getelementptr inbounds nuw i8, ptr %0, i64 16
  %4 = load ptr, ptr %3, align 8
  %.not = icmp eq ptr %4, null
  br i1 %.not, label %8, label %5

5:                                                ; preds = %2
  %6 = zext i1 %1 to i8
  %7 = getelementptr inbounds nuw i8, ptr %4, i64 34
  store i8 %6, ptr %7, align 2
  br label %8

8:                                                ; preds = %5, %2
  ret void
}